target datalayout = "e-m:e-p270:32:32-p271:32:32-p272:64:64-i64:64-i128:128-f80:128-n8:16:32:64-S128"
target triple = "x86_64-pc-linux-gnu"

%"class.nanobind::handle" = type { ptr }
%"class.Eigen::Map" = type { %"class.Eigen::MapBase.base.91", [6 x i8] }
%"class.Eigen::MapBase.base.91" = type { %"class.Eigen::MapBase.base" }
%"class.Eigen::MapBase.base" = type <{ ptr, [2 x i8] }>
%"struct.nanobind::detail::type_caster.1436" = type { %"struct.nanobind::detail::type_caster_base" }
%"struct.nanobind::detail::type_caster_base" = type { ptr }
%class.anon.1437 = type { { i64, i64 } }
%class.anon.1440 = type { i8 }
%struct.capture.1439 = type { %class.anon.1437 }
%"struct.nanobind::detail::tuple.1442" = type { %"struct.nanobind::detail::type_caster.1436" }

@_ZTIZL28nanobind_init_test_eigen_extRN8nanobind7module_EE6Buffer = internal constant { ptr, ptr } { ptr getelementptr inbounds (ptr, ptr @_ZTVN10__cxxabiv117__class_type_infoE, i64 2), ptr @_ZTSZL28nanobind_init_test_eigen_extRN8nanobind7module_EE6Buffer }, align 8

; Function Attrs: alwaysinline mustprogress nounwind optsize uwtable
define linkonce_odr hidden noundef ptr @_ZNK8nanobind6handle3ptrEv(ptr noundef nonnull align 8 dereferenceable(8) %0) #7 comdat align 2 {
  %2 = alloca ptr, align 8
  store ptr %0, ptr %2, align 8, !tbaa !20
  %3 = load ptr, ptr %2, align 8
  %4 = getelementptr inbounds nuw %"class.nanobind::handle", ptr %3, i32 0, i32 0
  %5 = load ptr, ptr %4, align 8, !tbaa !22
  ret ptr %5
}

; Function Attrs: alwaysinline mustprogress optsize uwtable
define internal void @_ZZN8nanobind16cpp_function_defIZL28nanobind_init_test_eigen_extRNS_7module_EE6BufferN5Eigen3MapINS4_5ArrayIjLi10ELi3ELi0ELi10ELi3EEELi0ENS4_6StrideILi0ELi0EEEEES3_JEJNS_5scopeENS_4nameENS_9is_methodENS_9rv_policyEEEEvMT1_FT0_DpT2_EDpRKT3_ENKUlPS3_E_clESP_(ptr dead_on_unwind noalias writable sret(%"class.Eigen::Map") align 8 %0, ptr noundef nonnull align 8 dereferenceable(16) %1, ptr noundef %2) #5 align 2 {
  %4 = alloca ptr, align 8
  %5 = alloca ptr, align 8
  %6 = alloca ptr, align 8
  store ptr %0, ptr %4, align 8
  store ptr %1, ptr %5, align 8, !tbaa !41
  store ptr %2, ptr %6, align 8, !tbaa !89
  %7 = load ptr, ptr %5, align 8
  %8 = load ptr, ptr %6, align 8, !tbaa !89
  %9 = getelementptr inbounds nuw %class.anon.1437, ptr %7, i32 0, i32 0
  %10 = load { i64, i64 }, ptr %9, align 8, !tbaa !2850
  %11 = extractvalue { i64, i64 } %10, 1
  %12 = getelementptr inbounds i8, ptr %8, i64 %11
  %13 = extractvalue { i64, i64 } %10, 0
  %14 = and i64 %13, 1
  %15 = icmp ne i64 %14, 0
  br i1 %15, label %16, label %21

16:                                               ; preds = %3
  %17 = load ptr, ptr %12, align 8, !tbaa !18
  %18 = sub i64 %13, 1
  %19 = getelementptr i8, ptr %17, i64 %18, !nosanitize !48
  %20 = load ptr, ptr %19, align 8, !nosanitize !48
  br label %23

21:                                               ; preds = %3
  %22 = inttoptr i64 %13 to ptr
  br label %23

23:                                               ; preds = %21, %16
  %24 = phi ptr [ %20, %16 ], [ %22, %21 ]
  call void %24(ptr dead_on_unwind writable sret(%"class.Eigen::Map") align 8 %0, ptr noundef nonnull align 4 dereferenceable(120) %12) #24
  ret void
}

; Function Attrs: mustprogress nounwind optsize uwtable
define internal noundef ptr @_ZN8nanobind6detail16type_caster_baseIZL28nanobind_init_test_eigen_extRNS_7module_EE6BufferEcvPS4_Ev(ptr noundef nonnull align 8 dereferenceable(8) %0) #1 align 2 {
  %2 = alloca ptr, align 8
  store ptr %0, ptr %2, align 8, !tbaa !2846
  %3 = load ptr, ptr %2, align 8
  %4 = getelementptr inbounds nuw %"struct.nanobind::detail::type_caster_base", ptr %3, i32 0, i32 0
  %5 = load ptr, ptr %4, align 8, !tbaa !2848
  ret ptr %5
}

; Function Attrs: alwaysinline mustprogress nounwind optsize uwtable
define internal noundef zeroext i1 @_ZN8nanobind6detail16type_caster_baseIZL28nanobind_init_test_eigen_extRNS_7module_EE6BufferE11from_pythonENS_6handleEhPNS0_12cleanup_listE(ptr noundef nonnull align 8 dereferenceable(8) %0, ptr %1, i8 noundef zeroext %2, ptr noundef %3) #7 align 2 {
  %5 = alloca %"class.nanobind::handle", align 8
  %6 = alloca ptr, align 8
  %7 = alloca i8, align 1
  %8 = alloca ptr, align 8
  %9 = getelementptr inbounds nuw %"class.nanobind::handle", ptr %5, i32 0, i32 0
  store ptr %1, ptr %9, align 8
  store ptr %0, ptr %6, align 8, !tbaa !2846
  store i8 %2, ptr %7, align 1, !tbaa !30
  store ptr %3, ptr %8, align 8, !tbaa !143
  %10 = load ptr, ptr %6, align 8
  %11 = call noundef ptr @_ZNK8nanobind6handle3ptrEv(ptr noundef nonnull align 8 dereferenceable(8) %5) #24
  %12 = load i8, ptr %7, align 1, !tbaa !30
  %13 = load ptr, ptr %8, align 8, !tbaa !143
  %14 = getelementptr inbounds nuw %"struct.nanobind::detail::type_caster_base", ptr %10, i32 0, i32 0
  %15 = call noundef zeroext i1 @_ZN8nanobind6detail11nb_type_getEPKSt9type_infoP7_objecthPNS0_12cleanup_listEPPv(ptr noundef @_ZTIZL28nanobind_init_test_eigen_extRN8nanobind7module_EE6Buffer, ptr noundef %11, i8 noundef zeroext %12, ptr noundef %13, ptr noundef %14) #26
  ret i1 %15
}

; Function Attrs: alwaysinline mustprogress nounwind optsize uwtable
define linkonce_odr hidden void @_ZN8nanobind6handleC2EPK7_object(ptr noundef nonnull align 8 dereferenceable(8) %0, ptr noundef %1) unnamed_addr #7 comdat align 2 {
  %3 = alloca ptr, align 8
  %4 = alloca ptr, align 8
  store ptr %0, ptr %3, align 8, !tbaa !20
  store ptr %1, ptr %4, align 8, !tbaa !14
  %5 = load ptr, ptr %3, align 8
  %6 = getelementptr inbounds nuw %"class.nanobind::handle", ptr %5, i32 0, i32 0
  %7 = load ptr, ptr %4, align 8, !tbaa !14
  store ptr %7, ptr %6, align 8, !tbaa !22
  ret void
}

; Function Attrs: alwaysinline mustprogress nounwind optsize uwtable
define internal noundef nonnull align 8 dereferenceable(8) ptr @_ZN8nanobind6detail5tupleIJNS0_11type_casterIZL28nanobind_init_test_eigen_extRNS_7module_EE6BufferiEEEE3getILm0EEERDav(ptr noundef nonnull align 8 dereferenceable(8) %0) #7 align 2 {
  %2 = alloca ptr, align 8
  store ptr %0, ptr %2, align 8, !tbaa !2856
  %3 = load ptr, ptr %2, align 8
  %4 = getelementptr inbounds nuw %"struct.nanobind::detail::tuple.1442", ptr %3, i32 0, i32 0
  ret ptr %4
}

; Function Attrs: alwaysinline mustprogress optsize uwtable
define internal noundef ptr @_ZZN8nanobind6detail11func_createILb0ELb1EZNS_16cpp_function_defIZL28nanobind_init_test_eigen_extRNS_7module_EE6BufferN5Eigen3MapINS6_5ArrayIjLi10ELi3ELi0ELi10ELi3EEELi0ENS6_6StrideILi0ELi0EEEEES5_JEJNS_5scopeENS_4nameENS_9is_methodENS_9rv_policyEEEEvMT1_FT0_DpT2_EDpRKT3_EUlPS5_E_SC_JSR_EJLm0EEJSD_SE_SF_SG_EEEP7_objectOSH_PFT2_DpSN_ESt16integer_sequenceImJXspT4_EEEDpRKT5_ENKUlPvPSU_PhSG_PNS0_12cleanup_listEE_clES16_S17_S18_SG_S1A_(ptr noundef nonnull align 1 dereferenceable(1) %0, ptr noundef %1, ptr noundef %2, ptr noundef %3, i32 noundef %4, ptr noundef %5) #5 align 2 {
  %7 = alloca ptr, align 8
  %8 = alloca ptr, align 8
  %9 = alloca ptr, align 8
  %10 = alloca ptr, align 8
  %11 = alloca ptr, align 8
  %12 = alloca i32, align 4
  %13 = alloca ptr, align 8
  %14 = alloca ptr, align 8
  %15 = alloca %"struct.nanobind::detail::tuple.1442", align 8
  %16 = alloca %"class.nanobind::handle", align 8
  %17 = alloca i32, align 4
  %18 = alloca ptr, align 8
  %19 = alloca %"class.nanobind::handle", align 8
  %20 = alloca %"class.Eigen::Map", align 8
  store ptr %0, ptr %8, align 8, !tbaa !41
  store ptr %1, ptr %9, align 8, !tbaa !41
  store ptr %2, ptr %10, align 8, !tbaa !141
  store ptr %3, ptr %11, align 8, !tbaa !39
  store i32 %4, ptr %12, align 4, !tbaa !31
  store ptr %5, ptr %13, align 8, !tbaa !143
  call void @llvm.lifetime.start.p0(i64 8, ptr %14) #25
  %21 = load ptr, ptr %9, align 8, !tbaa !41
  store ptr %21, ptr %14, align 8, !tbaa !2852
  call void @llvm.lifetime.start.p0(i64 8, ptr %15) #25
  %22 = call noundef nonnull align 8 dereferenceable(8) ptr @_ZN8nanobind6detail5tupleIJNS0_11type_casterIZL28nanobind_init_test_eigen_extRNS_7module_EE6BufferiEEEE3getILm0EEERDav(ptr noundef nonnull align 8 dereferenceable(8) %15) #24
  %23 = load ptr, ptr %10, align 8, !tbaa !141
  %24 = getelementptr inbounds nuw ptr, ptr %23, i64 0
  %25 = load ptr, ptr %24, align 8, !tbaa !14
  call void @_ZN8nanobind6handleC2EPK7_object(ptr noundef nonnull align 8 dereferenceable(8) %16, ptr noundef %25) #24
  %26 = load ptr, ptr %11, align 8, !tbaa !39
  %27 = getelementptr inbounds nuw i8, ptr %26, i64 0
  %28 = load i8, ptr %27, align 1, !tbaa !30
  %29 = load ptr, ptr %13, align 8, !tbaa !143
  %30 = getelementptr inbounds nuw %"class.nanobind::handle", ptr %16, i32 0, i32 0
  %31 = load ptr, ptr %30, align 8
  %32 = call noundef zeroext i1 @_ZN8nanobind6detail16type_caster_baseIZL28nanobind_init_test_eigen_extRNS_7module_EE6BufferE11from_pythonENS_6handleEhPNS0_12cleanup_listE(ptr noundef nonnull align 8 dereferenceable(8) %22, ptr %31, i8 noundef zeroext %28, ptr noundef %29) #26
  br i1 %32, label %34, label %33

33:                                               ; preds = %6
  store ptr inttoptr (i64 1 to ptr), ptr %7, align 8
  store i32 1, ptr %17, align 4
  br label %45

34:                                               ; preds = %6
  call void @llvm.lifetime.start.p0(i64 8, ptr %18) #25
  call void @llvm.lifetime.start.p0(i64 8, ptr %19) #25
  call void @llvm.lifetime.start.p0(i64 16, ptr %20) #25
  %35 = load ptr, ptr %14, align 8, !tbaa !2852
  %36 = getelementptr inbounds nuw %struct.capture.1439, ptr %35, i32 0, i32 0
  %37 = call noundef nonnull align 8 dereferenceable(8) ptr @_ZN8nanobind6detail5tupleIJNS0_11type_casterIZL28nanobind_init_test_eigen_extRNS_7module_EE6BufferiEEEE3getILm0EEERDav(ptr noundef nonnull align 8 dereferenceable(8) %15) #24
  %38 = call noundef ptr @_ZN8nanobind6detail16type_caster_baseIZL28nanobind_init_test_eigen_extRNS_7module_EE6BufferEcvPS4_Ev(ptr noundef nonnull align 8 dereferenceable(8) %37) #24
  call void @_ZZN8nanobind16cpp_function_defIZL28nanobind_init_test_eigen_extRNS_7module_EE6BufferN5Eigen3MapINS4_5ArrayIjLi10ELi3ELi0ELi10ELi3EEELi0ENS4_6StrideILi0ELi0EEEEES3_JEJNS_5scopeENS_4nameENS_9is_methodENS_9rv_policyEEEEvMT1_FT0_DpT2_EDpRKT3_ENKUlPS3_E_clESP_(ptr dead_on_unwind writable sret(%"class.Eigen::Map") align 8 %20, ptr noundef nonnull align 8 dereferenceable(16) %36, ptr noundef %38) #24
  %39 = load i32, ptr %12, align 4, !tbaa !31
  %40 = load ptr, ptr %13, align 8, !tbaa !143
  %41 = call ptr @_ZN8nanobind6detail11type_casterIN5Eigen3MapINS2_5ArrayIjLi10ELi3ELi0ELi10ELi3EEELi0ENS2_6StrideILi0ELi0EEEEEiE8from_cppERKS8_NS_9rv_policyEPNS0_12cleanup_listE(ptr noundef nonnull align 8 dereferenceable(12) %20, i32 noundef %39, ptr noundef %40) #26
  %42 = getelementptr inbounds nuw %"class.nanobind::handle", ptr %19, i32 0, i32 0
  store ptr %41, ptr %42, align 8
  %43 = call noundef ptr @_ZNK8nanobind6handle3ptrEv(ptr noundef nonnull align 8 dereferenceable(8) %19) #24
  store ptr %43, ptr %18, align 8, !tbaa !14
  call void @llvm.lifetime.end.p0(i64 16, ptr %20) #25
  call void @llvm.lifetime.end.p0(i64 8, ptr %19) #25
  %44 = load ptr, ptr %18, align 8, !tbaa !14
  store ptr %44, ptr %7, align 8
  store i32 1, ptr %17, align 4
  call void @llvm.lifetime.end.p0(i64 8, ptr %18) #25
  br label %45

45:                                               ; preds = %34, %33
  call void @llvm.lifetime.end.p0(i64 8, ptr %15) #25
  call void @llvm.lifetime.end.p0(i64 8, ptr %14) #25
  %46 = load ptr, ptr %7, align 8
  ret ptr %46
}

; Function Attrs: inlinehint mustprogress optsize uwtable
define internal noundef ptr @_ZZN8nanobind6detail11func_createILb0ELb1EZNS_16cpp_function_defIZL28nanobind_init_test_eigen_extRNS_7module_EE6BufferN5Eigen3MapINS6_5ArrayIjLi10ELi3ELi0ELi10ELi3EEELi0ENS6_6StrideILi0ELi0EEEEES5_JEJNS_5scopeENS_4nameENS_9is_methodENS_9rv_policyEEEEvMT1_FT0_DpT2_EDpRKT3_EUlPS5_E_SC_JSR_EJLm0EEJSD_SE_SF_SG_EEEP7_objectOSH_PFT2_DpSN_ESt16integer_sequenceImJXspT4_EEEDpRKT5_ENUlPvPSU_PhSG_PNS0_12cleanup_listEE_8__invokeES16_S17_S18_SG_S1A_(ptr noundef %0, ptr noundef %1, ptr noundef %2, i32 noundef %3, ptr noundef %4) #10 align 2 {
  %6 = alloca ptr, align 8
  %7 = alloca ptr, align 8
  %8 = alloca ptr, align 8
  %9 = alloca i32, align 4
  %10 = alloca ptr, align 8
  %11 = alloca %class.anon.1440, align 1
  store ptr %0, ptr %6, align 8, !tbaa !41
  store ptr %1, ptr %7, align 8, !tbaa !141
  store ptr %2, ptr %8, align 8, !tbaa !39
  store i32 %3, ptr %9, align 4, !tbaa !31
  store ptr %4, ptr %10, align 8, !tbaa !143
  %12 = load ptr, ptr %6, align 8, !tbaa !41
  %13 = load ptr, ptr %7, align 8, !tbaa !141
  %14 = load ptr, ptr %8, align 8, !tbaa !39
  %15 = load i32, ptr %9, align 4, !tbaa !31
  %16 = load ptr, ptr %10, align 8, !tbaa !143
  %17 = call noundef ptr @_ZZN8nanobind6detail11func_createILb0ELb1EZNS_16cpp_function_defIZL28nanobind_init_test_eigen_extRNS_7module_EE6BufferN5Eigen3MapINS6_5ArrayIjLi10ELi3ELi0ELi10ELi3EEELi0ENS6_6StrideILi0ELi0EEEEES5_JEJNS_5scopeENS_4nameENS_9is_methodENS_9rv_policyEEEEvMT1_FT0_DpT2_EDpRKT3_EUlPS5_E_SC_JSR_EJLm0EEJSD_SE_SF_SG_EEEP7_objectOSH_PFT2_DpSN_ESt16integer_sequenceImJXspT4_EEEDpRKT5_ENKUlPvPSU_PhSG_PNS0_12cleanup_listEE_clES16_S17_S18_SG_S1A_(ptr noundef nonnull align 1 dereferenceable(1) %11, ptr noundef %12, ptr noundef %13, ptr noundef %14, i32 noundef %15, ptr noundef %16) #24
  ret ptr %17
}